target datalayout = "e-m:e-p270:32:32-p271:32:32-p272:64:64-i64:64-i128:128-f80:128-n8:16:32:64-S128"
target triple = "x86_64-pc-linux-gnu"

@stderr = external global ptr, align 8
@.str.3 = private unnamed_addr constant [50 x i8] c"Warning: degenerate Moebius strip of %u vertices\0A\00", align 1

; Function Attrs: nounwind uwtable
define dso_local void @makePath(i32 noundef %0, ptr noundef %1) #0 {
  %3 = alloca i32, align 4
  %4 = alloca ptr, align 8
  %5 = alloca i32, align 4
  store i32 %0, ptr %3, align 4, !tbaa !4
  store ptr %1, ptr %4, align 8, !tbaa !8
  %6 = load i32, ptr %3, align 4, !tbaa !4
  %7 = icmp eq i32 %6, 1
  br i1 %7, label %8, label %10

8:                                                ; preds = %2
  %9 = load ptr, ptr %4, align 8, !tbaa !8
  call void %9(i32 noundef 1, i32 noundef 0)
  br label %24

10:                                               ; preds = %2
  call void @llvm.lifetime.start.p0(i64 4, ptr %5) #11
  store i32 2, ptr %5, align 4, !tbaa !4
  br label %11

11:                                               ; preds = %21, %10
  %12 = load i32, ptr %5, align 4, !tbaa !4
  %13 = load i32, ptr %3, align 4, !tbaa !4
  %14 = icmp ule i32 %12, %13
  br i1 %14, label %16, label %15

15:                                               ; preds = %11
  call void @llvm.lifetime.end.p0(i64 4, ptr %5) #11
  br label %24

16:                                               ; preds = %11
  %17 = load ptr, ptr %4, align 8, !tbaa !8
  %18 = load i32, ptr %5, align 4, !tbaa !4
  %19 = sub i32 %18, 1
  %20 = load i32, ptr %5, align 4, !tbaa !4
  call void %17(i32 noundef %19, i32 noundef %20)
  br label %21

21:                                               ; preds = %16
  %22 = load i32, ptr %5, align 4, !tbaa !4
  %23 = add i32 %22, 1
  store i32 %23, ptr %5, align 4, !tbaa !4
  br label %11, !llvm.loop !10

24:                                               ; preds = %8, %15
  ret void
}

; Function Attrs: nounwind uwtable
define dso_local void @makeMobius(i32 noundef %0, i32 noundef %1, ptr noundef %2) #0 {
  %4 = alloca i32, align 4
  %5 = alloca i32, align 4
  %6 = alloca ptr, align 8
  %7 = alloca i32, align 4
  %8 = alloca i32, align 4
  %9 = alloca i32, align 4
  %10 = alloca i32, align 4
  %11 = alloca i32, align 4
  store i32 %0, ptr %4, align 4, !tbaa !4
  store i32 %1, ptr %5, align 4, !tbaa !4
  store ptr %2, ptr %6, align 8, !tbaa !8
  %12 = load i32, ptr %5, align 4, !tbaa !4
  %13 = icmp eq i32 %12, 1
  br i1 %13, label %14, label %20

14:                                               ; preds = %3
  %15 = load ptr, ptr @stderr, align 8, !tbaa !14
  %16 = load i32, ptr %4, align 4, !tbaa !4
  %17 = call i32 (ptr, ptr, ...) @fprintf(ptr noundef %15, ptr noundef @.str.3, i32 noundef %16) #11
  %18 = load i32, ptr %4, align 4, !tbaa !4
  %19 = load ptr, ptr %6, align 8, !tbaa !8
  call void @makePath(i32 noundef %18, ptr noundef %19)
  br label %131

20:                                               ; preds = %3
  %21 = load i32, ptr %4, align 4, !tbaa !4
  %22 = icmp eq i32 %21, 1
  br i1 %22, label %23, label %29

23:                                               ; preds = %20
  %24 = load ptr, ptr @stderr, align 8, !tbaa !14
  %25 = load i32, ptr %5, align 4, !tbaa !4
  %26 = call i32 (ptr, ptr, ...) @fprintf(ptr noundef %24, ptr noundef @.str.3, i32 noundef %25) #11
  %27 = load i32, ptr %5, align 4, !tbaa !4
  %28 = load ptr, ptr %6, align 8, !tbaa !8
  call void @makePath(i32 noundef %27, ptr noundef %28)
  br label %131

29:                                               ; preds = %20
  call void @llvm.lifetime.start.p0(i64 4, ptr %7) #11
  store i32 0, ptr %7, align 4, !tbaa !4
  br label %30

30:                                               ; preds = %71, %29
  %31 = load i32, ptr %7, align 4, !tbaa !4
  %32 = add i32 %31, 1
  %33 = load i32, ptr %4, align 4, !tbaa !4
  %34 = icmp ult i32 %32, %33
  br i1 %34, label %36, label %35

35:                                               ; preds = %30
  store i32 2, ptr %8, align 4
  call void @llvm.lifetime.end.p0(i64 4, ptr %7) #11
  br label %74

36:                                               ; preds = %30
  call void @llvm.lifetime.start.p0(i64 4, ptr %9) #11
  store i32 1, ptr %9, align 4, !tbaa !4
  br label %37

37:                                               ; preds = %67, %36
  %38 = load i32, ptr %9, align 4, !tbaa !4
  %39 = load i32, ptr %5, align 4, !tbaa !4
  %40 = icmp ult i32 %38, %39
  br i1 %40, label %42, label %41

41:                                               ; preds = %37
  store i32 5, ptr %8, align 4
  call void @llvm.lifetime.end.p0(i64 4, ptr %9) #11
  br label %70

42:                                               ; preds = %37
  %43 = load ptr, ptr %6, align 8, !tbaa !8
  %44 = load i32, ptr %9, align 4, !tbaa !4
  %45 = load i32, ptr %7, align 4, !tbaa !4
  %46 = load i32, ptr %5, align 4, !tbaa !4
  %47 = mul i32 %45, %46
  %48 = add i32 %44, %47
  %49 = load i32, ptr %9, align 4, !tbaa !4
  %50 = load i32, ptr %7, align 4, !tbaa !4
  %51 = add i32 %50, 1
  %52 = load i32, ptr %5, align 4, !tbaa !4
  %53 = mul i32 %51, %52
  %54 = add i32 %49, %53
  call void %43(i32 noundef %48, i32 noundef %54)
  %55 = load ptr, ptr %6, align 8, !tbaa !8
  %56 = load i32, ptr %9, align 4, !tbaa !4
  %57 = load i32, ptr %7, align 4, !tbaa !4
  %58 = load i32, ptr %5, align 4, !tbaa !4
  %59 = mul i32 %57, %58
  %60 = add i32 %56, %59
  %61 = load i32, ptr %9, align 4, !tbaa !4
  %62 = add i32 %61, 1
  %63 = load i32, ptr %7, align 4, !tbaa !4
  %64 = load i32, ptr %5, align 4, !tbaa !4
  %65 = mul i32 %63, %64
  %66 = add i32 %62, %65
  call void %55(i32 noundef %60, i32 noundef %66)
  br label %67

67:                                               ; preds = %42
  %68 = load i32, ptr %9, align 4, !tbaa !4
  %69 = add i32 %68, 1
  store i32 %69, ptr %9, align 4, !tbaa !4
  br label %37, !llvm.loop !61

70:                                               ; preds = %41
  br label %71

71:                                               ; preds = %70
  %72 = load i32, ptr %7, align 4, !tbaa !4
  %73 = add i32 %72, 1
  store i32 %73, ptr %7, align 4, !tbaa !4
  br label %30, !llvm.loop !62

74:                                               ; preds = %35
  call void @llvm.lifetime.start.p0(i64 4, ptr %10) #11
  store i32 1, ptr %10, align 4, !tbaa !4
  br label %75

75:                                               ; preds = %95, %74
  %76 = load i32, ptr %10, align 4, !tbaa !4
  %77 = load i32, ptr %5, align 4, !tbaa !4
  %78 = icmp ult i32 %76, %77
  br i1 %78, label %80, label %79

79:                                               ; preds = %75
  store i32 8, ptr %8, align 4
  call void @llvm.lifetime.end.p0(i64 4, ptr %10) #11
  br label %98

80:                                               ; preds = %75
  %81 = load ptr, ptr %6, align 8, !tbaa !8
  %82 = load i32, ptr %10, align 4, !tbaa !4
  %83 = load i32, ptr %4, align 4, !tbaa !4
  %84 = sub i32 %83, 1
  %85 = load i32, ptr %5, align 4, !tbaa !4
  %86 = mul i32 %84, %85
  %87 = add i32 %82, %86
  %88 = load i32, ptr %10, align 4, !tbaa !4
  %89 = add i32 %88, 1
  %90 = load i32, ptr %4, align 4, !tbaa !4
  %91 = sub i32 %90, 1
  %92 = load i32, ptr %5, align 4, !tbaa !4
  %93 = mul i32 %91, %92
  %94 = add i32 %89, %93
  call void %81(i32 noundef %87, i32 noundef %94)
  br label %95

95:                                               ; preds = %80
  %96 = load i32, ptr %10, align 4, !tbaa !4
  %97 = add i32 %96, 1
  store i32 %97, ptr %10, align 4, !tbaa !4
  br label %75, !llvm.loop !63

98:                                               ; preds = %79
  call void @llvm.lifetime.start.p0(i64 4, ptr %11) #11
  store i32 1, ptr %11, align 4, !tbaa !4
  br label %99

99:                                               ; preds = %123, %98
  %100 = load i32, ptr %11, align 4, !tbaa !4
  %101 = load i32, ptr %4, align 4, !tbaa !4
  %102 = icmp ult i32 %100, %101
  br i1 %102, label %104, label %103

103:                                              ; preds = %99
  store i32 11, ptr %8, align 4
  call void @llvm.lifetime.end.p0(i64 4, ptr %11) #11
  br label %126

104:                                              ; preds = %99
  %105 = load ptr, ptr %6, align 8, !tbaa !8
  %106 = load i32, ptr %11, align 4, !tbaa !4
  %107 = load i32, ptr %5, align 4, !tbaa !4
  %108 = mul i32 %106, %107
  %109 = load i32, ptr %11, align 4, !tbaa !4
  %110 = add i32 %109, 1
  %111 = load i32, ptr %5, align 4, !tbaa !4
  %112 = mul i32 %110, %111
  call void %105(i32 noundef %108, i32 noundef %112)
  %113 = load ptr, ptr %6, align 8, !tbaa !8
  %114 = load i32, ptr %11, align 4, !tbaa !4
  %115 = load i32, ptr %5, align 4, !tbaa !4
  %116 = mul i32 %114, %115
  %117 = load i32, ptr %4, align 4, !tbaa !4
  %118 = load i32, ptr %11, align 4, !tbaa !4
  %119 = sub i32 %117, %118
  %120 = load i32, ptr %5, align 4, !tbaa !4
  %121 = mul i32 %119, %120
  %122 = add i32 %121, 1
  call void %113(i32 noundef %116, i32 noundef %122)
  br label %123

123:                                              ; preds = %104
  %124 = load i32, ptr %11, align 4, !tbaa !4
  %125 = add i32 %124, 1
  store i32 %125, ptr %11, align 4, !tbaa !4
  br label %99, !llvm.loop !64

126:                                              ; preds = %103
  %127 = load ptr, ptr %6, align 8, !tbaa !8
  %128 = load i32, ptr %4, align 4, !tbaa !4
  %129 = load i32, ptr %5, align 4, !tbaa !4
  %130 = mul i32 %128, %129
  call void %127(i32 noundef 1, i32 noundef %130)
  br label %131

131:                                              ; preds = %126, %23, %14
  ret void
}