; Function Attrs: nounwind uwtable
define dso_local void @makeMobius(i32 noundef %0, i32 noundef %1, ptr noundef readonly captures(none) %2) local_unnamed_addr #0 {
  %4 = icmp eq i32 %1, 1
  br i1 %4, label %5, label %10

5:                                                ; preds = %3
  %6 = load ptr, ptr @stderr, align 8, !tbaa !8
  %7 = tail call i32 (ptr, ptr, ...) @fprintf(ptr noundef %6, ptr noundef nonnull @.str.3, i32 noundef %0) #16
  switch i32 %0, label %.lr.ph.i [
    i32 1, label %makePath.exit.sink.split
    i32 0, label %makePath.exit
  ]

.lr.ph.i:                                         ; preds = %5, %.lr.ph.i
  %.09.i = phi i32 [ %9, %.lr.ph.i ], [ 2, %5 ]
  %8 = add i32 %.09.i, -1
  tail call void %2(i32 noundef %8, i32 noundef %.09.i) #15
  %9 = add i32 %.09.i, 1
  %.not.i = icmp ugt i32 %9, %0
  br i1 %.not.i, label %makePath.exit, label %.lr.ph.i, !llvm.loop !4

10:                                               ; preds = %3
  %11 = icmp eq i32 %0, 1
  br i1 %11, label %21, label %.preheader67

.preheader67:                                     ; preds = %10
  %.not = icmp eq i32 %0, 0
  %.not74 = icmp eq i32 %1, 0
  br i1 %.not, label %.preheader65, label %.preheader66.lr.ph

.preheader66.lr.ph:                               ; preds = %.preheader67
  br i1 %.not74, label %.lr.ph72.preheader, label %.preheader66.us

.preheader66.us:                                  ; preds = %.preheader66.lr.ph, %..loopexit_crit_edge.us
  %12 = phi i32 [ %20, %..loopexit_crit_edge.us ], [ 1, %.preheader66.lr.ph ]
  %.05669.us = phi i32 [ %12, %..loopexit_crit_edge.us ], [ 0, %.preheader66.lr.ph ]
  %13 = mul i32 %.05669.us, %1
  %14 = mul i32 %12, %1
  br label %15

15:                                               ; preds = %.preheader66.us, %15
  %.05568.us = phi i32 [ 1, %.preheader66.us ], [ %18, %15 ]
  %16 = add i32 %.05568.us, %13
  %17 = add i32 %.05568.us, %14
  tail call void %2(i32 noundef %16, i32 noundef %17) #15
  %18 = add nuw i32 %.05568.us, 1
  %19 = add i32 %18, %13
  tail call void %2(i32 noundef %16, i32 noundef %19) #15
  %exitcond.not = icmp eq i32 %18, %1
  br i1 %exitcond.not, label %..loopexit_crit_edge.us, label %15, !llvm.loop !55

..loopexit_crit_edge.us:                          ; preds = %15
  %20 = add nuw i32 %12, 1
  %exitcond78.not = icmp eq i32 %20, %0
  br i1 %exitcond78.not, label %.lr.ph, label %.preheader66.us, !llvm.loop !56

21:                                               ; preds = %10
  %22 = load ptr, ptr @stderr, align 8, !tbaa !8
  %23 = tail call i32 (ptr, ptr, ...) @fprintf(ptr noundef %22, ptr noundef nonnull @.str.3, i32 noundef %1) #16
  %cond = icmp eq i32 %1, 0
  br i1 %cond, label %makePath.exit, label %.lr.ph.i60

.lr.ph.i60:                                       ; preds = %21, %.lr.ph.i60
  %.09.i61 = phi i32 [ %25, %.lr.ph.i60 ], [ 2, %21 ]
  %24 = add i32 %.09.i61, -1
  tail call void %2(i32 noundef %24, i32 noundef %.09.i61) #15
  %25 = add i32 %.09.i61, 1
  %.not.i62 = icmp ugt i32 %25, %1
  br i1 %.not.i62, label %makePath.exit, label %.lr.ph.i60, !llvm.loop !4

.preheader65:                                     ; preds = %.preheader67
  br i1 %.not74, label %._crit_edge, label %.lr.ph

.lr.ph:                                           ; preds = %..loopexit_crit_edge.us, %.preheader65
  %26 = add i32 %0, -1
  %27 = mul i32 %26, %1
  %umax = tail call i32 @llvm.umax.i32(i32 %1, i32 2)
  br label %28

.preheader:                                       ; preds = %28
  br i1 %.not, label %._crit_edge, label %.lr.ph72.preheader

.lr.ph72.preheader:                               ; preds = %.preheader66.lr.ph, %.preheader
  %umax80 = tail call i32 @llvm.umax.i32(i32 %0, i32 2)
  br label %.lr.ph72

28:                                               ; preds = %.lr.ph, %28
  %.05470 = phi i32 [ 1, %.lr.ph ], [ %30, %28 ]
  %29 = add i32 %.05470, %27
  %30 = add nuw i32 %.05470, 1
  %31 = add i32 %30, %27
  tail call void %2(i32 noundef %29, i32 noundef %31) #15
  %exitcond79.not = icmp eq i32 %30, %umax
  br i1 %exitcond79.not, label %.preheader, label %28, !llvm.loop !57

._crit_edge:                                      ; preds = %.lr.ph72, %.preheader65, %.preheader
  %32 = mul i32 %1, %0
  br label %makePath.exit.sink.split

.lr.ph72:                                         ; preds = %.lr.ph72.preheader, %.lr.ph72
  %.071 = phi i32 [ %34, %.lr.ph72 ], [ 1, %.lr.ph72.preheader ]
  %33 = mul i32 %.071, %1
  %34 = add nuw i32 %.071, 1
  %35 = mul i32 %34, %1
  tail call void %2(i32 noundef %33, i32 noundef %35) #15
  %36 = sub nuw i32 %0, %.071
  %37 = mul i32 %36, %1
  %38 = add i32 %37, 1
  tail call void %2(i32 noundef %33, i32 noundef %38) #15
  %exitcond81.not = icmp eq i32 %34, %umax80
  br i1 %exitcond81.not, label %._crit_edge, label %.lr.ph72, !llvm.loop !58

makePath.exit.sink.split:                         ; preds = %5, %._crit_edge
  %.sink = phi i32 [ %32, %._crit_edge ], [ 0, %5 ]
  tail call void %2(i32 noundef 1, i32 noundef %.sink) #15
  br label %makePath.exit

makePath.exit:                                    ; preds = %.lr.ph.i60, %.lr.ph.i, %makePath.exit.sink.split, %21, %5
  ret void
}